target datalayout = "e-m:e-p270:32:32-p271:32:32-p272:64:64-i64:64-i128:128-f80:128-n8:16:32:64-S128"
target triple = "x86_64-pc-linux-gnu"

%struct.x509_trust_st = type { i32, i32, ptr, ptr, i32, ptr }

@trtable = internal global ptr null, align 8

; Function Attrs: inlinehint nounwind uwtable
define internal ptr @ossl_check_const_X509_TRUST_sk_type(ptr noundef %0) #3 {
  %2 = alloca ptr, align 8
  store ptr %0, ptr %2, align 8, !tbaa !53
  %3 = load ptr, ptr %2, align 8, !tbaa !53
  ret ptr %3
}

; Function Attrs: nounwind uwtable
define ptr @X509_TRUST_get0(i32 noundef %0) #0 {
  %2 = alloca ptr, align 8
  %3 = alloca i32, align 4
  store i32 %0, ptr %3, align 4, !tbaa !9
  %4 = load i32, ptr %3, align 4, !tbaa !9
  %5 = icmp slt i32 %4, 0
  br i1 %5, label %6, label %7

6:                                                ; preds = %1
  store ptr null, ptr %2, align 8
  br label %22

7:                                                ; preds = %1
  %8 = load i32, ptr %3, align 4, !tbaa !9
  %9 = icmp slt i32 %8, 8
  br i1 %9, label %10, label %14

10:                                               ; preds = %7
  %11 = load i32, ptr %3, align 4, !tbaa !9
  %12 = sext i32 %11 to i64
  %13 = getelementptr inbounds %struct.x509_trust_st, ptr @trstandard, i64 %12
  store ptr %13, ptr %2, align 8
  br label %22

14:                                               ; preds = %7
  %15 = load ptr, ptr @trtable, align 8, !tbaa !53
  %16 = call ptr @ossl_check_const_X509_TRUST_sk_type(ptr noundef %15)
  %17 = load i32, ptr %3, align 4, !tbaa !9
  %18 = sext i32 %17 to i64
  %19 = sub i64 %18, 8
  %20 = trunc i64 %19 to i32
  %21 = call ptr @OPENSSL_sk_value(ptr noundef %16, i32 noundef %20)
  store ptr %21, ptr %2, align 8
  br label %22

22:                                               ; preds = %14, %10, %6
  %23 = load ptr, ptr %2, align 8
  ret ptr %23
}