; Function Attrs: nounwind uwtable
define ptr @X509_TRUST_get0(i32 noundef %0) local_unnamed_addr #2 {
  %2 = icmp slt i32 %0, 0
  br i1 %2, label %12, label %3

3:                                                ; preds = %1
  %4 = icmp samesign ult i32 %0, 8
  br i1 %4, label %5, label %8

5:                                                ; preds = %3
  %6 = zext nneg i32 %0 to i64
  %7 = getelementptr inbounds nuw %struct.x509_trust_st, ptr @trstandard, i64 %6
  br label %12

8:                                                ; preds = %3
  %9 = load ptr, ptr @trtable, align 8, !tbaa !7
  %10 = add nsw i32 %0, -8
  %11 = tail call ptr @OPENSSL_sk_value(ptr noundef %9, i32 noundef %10) #6
  br label %12

12:                                               ; preds = %1, %8, %5
  %.0 = phi ptr [ %7, %5 ], [ %11, %8 ], [ null, %1 ]
  ret ptr %.0
}